target datalayout = "e-m:e-p270:32:32-p271:32:32-p272:64:64-i64:64-i128:128-f80:128-n8:16:32:64-S128"
target triple = "x86_64-unknown-linux-gnu"

%"class.icu_75::UnicodeString" = type { %"class.icu_75::Replaceable", %"union.icu_75::UnicodeString::StackBufferOrFields" }
%"class.icu_75::Replaceable" = type { %"class.icu_75::UObject" }
%"class.icu_75::UObject" = type { ptr }
%"union.icu_75::UnicodeString::StackBufferOrFields" = type { %struct.anon.0, [32 x i8] }
%struct.anon.0 = type { i16, i32, i32, ptr }
%"class.icu_75::ConstChar16Ptr" = type { ptr }

@_ZL15UNKNOWN_ZONE_ID = internal constant [12 x i16] [i16 69, i16 116, i16 99, i16 47, i16 85, i16 110, i16 107, i16 110, i16 111, i16 119, i16 110, i16 0], align 16

; Function Attrs: mustprogress nounwind uwtable
define linkonce_odr noundef ptr @_ZNK6icu_7514ConstChar16Ptr3getEv(ptr noundef nonnull align 8 dereferenceable(8) %this) #2 comdat align 2 {
entry:
  %this.addr = alloca ptr, align 8
  store ptr %this, ptr %this.addr, align 8
  %this1 = load ptr, ptr %this.addr, align 8
  %p_ = getelementptr inbounds %"class.icu_75::ConstChar16Ptr", ptr %this1, i32 0, i32 0
  %0 = load ptr, ptr %p_, align 8
  ret ptr %0
}

; Function Attrs: mustprogress nounwind uwtable
define linkonce_odr noundef i32 @_ZNK6icu_7513UnicodeString14getShortLengthEv(ptr noundef nonnull align 8 dereferenceable(64) %this) #2 comdat align 2 {
entry:
  %this.addr = alloca ptr, align 8
  store ptr %this, ptr %this.addr, align 8
  %this1 = load ptr, ptr %this.addr, align 8
  %fUnion = getelementptr inbounds %"class.icu_75::UnicodeString", ptr %this1, i32 0, i32 1
  %fLengthAndFlags = getelementptr inbounds %struct.anon.0, ptr %fUnion, i32 0, i32 0
  %0 = load i16, ptr %fLengthAndFlags, align 8
  %conv = sext i16 %0 to i32
  %shr = ashr i32 %conv, 5
  ret i32 %shr
}

; Function Attrs: mustprogress nounwind uwtable
define linkonce_odr noundef signext i8 @_ZNK6icu_7513UnicodeString14hasShortLengthEv(ptr noundef nonnull align 8 dereferenceable(64) %this) #2 comdat align 2 {
entry:
  %this.addr = alloca ptr, align 8
  store ptr %this, ptr %this.addr, align 8
  %this1 = load ptr, ptr %this.addr, align 8
  %fUnion = getelementptr inbounds %"class.icu_75::UnicodeString", ptr %this1, i32 0, i32 1
  %fLengthAndFlags = getelementptr inbounds %struct.anon.0, ptr %fUnion, i32 0, i32 0
  %0 = load i16, ptr %fLengthAndFlags, align 8
  %conv = sext i16 %0 to i32
  %cmp = icmp sge i32 %conv, 0
  %conv2 = zext i1 %cmp to i8
  ret i8 %conv2
}

; Function Attrs: mustprogress uwtable
define linkonce_odr noundef ptr @_ZNK6icu_7514ConstChar16PtrcvPKDsEv(ptr noundef nonnull align 8 dereferenceable(8) %this) #0 comdat align 2 {
entry:
  %this.addr = alloca ptr, align 8
  store ptr %this, ptr %this.addr, align 8
  %this1 = load ptr, ptr %this.addr, align 8
  %call = call noundef ptr @_ZNK6icu_7514ConstChar16Ptr3getEv(ptr noundef nonnull align 8 dereferenceable(8) %this1)
  ret ptr %call
}

; Function Attrs: mustprogress uwtable
define linkonce_odr noundef i32 @_ZNK6icu_7513UnicodeString6lengthEv(ptr noundef nonnull align 8 dereferenceable(64) %this) #0 comdat align 2 {
entry:
  %this.addr = alloca ptr, align 8
  store ptr %this, ptr %this.addr, align 8
  %this1 = load ptr, ptr %this.addr, align 8
  %call = call noundef signext i8 @_ZNK6icu_7513UnicodeString14hasShortLengthEv(ptr noundef nonnull align 8 dereferenceable(64) %this1)
  %tobool = icmp ne i8 %call, 0
  br i1 %tobool, label %cond.true, label %cond.false

cond.true:                                        ; preds = %entry
  %call2 = call noundef i32 @_ZNK6icu_7513UnicodeString14getShortLengthEv(ptr noundef nonnull align 8 dereferenceable(64) %this1)
  br label %cond.end

cond.false:                                       ; preds = %entry
  %fUnion = getelementptr inbounds %"class.icu_75::UnicodeString", ptr %this1, i32 0, i32 1
  %fLength = getelementptr inbounds %struct.anon.0, ptr %fUnion, i32 0, i32 1
  %0 = load i32, ptr %fLength, align 4
  br label %cond.end

cond.end:                                         ; preds = %cond.false, %cond.true
  %cond = phi i32 [ %call2, %cond.true ], [ %0, %cond.false ]
  ret i32 %cond
}

; Function Attrs: mustprogress uwtable
define noundef ptr @_ZN6icu_758TimeZone9getRegionERKNS_13UnicodeStringE(ptr noundef nonnull align 8 dereferenceable(64) %id) #0 align 2 {
entry:
  %id.addr = alloca ptr, align 8
  %status = alloca i32, align 4
  store ptr %id, ptr %id.addr, align 8
  store i32 0, ptr %status, align 4
  %0 = load ptr, ptr %id.addr, align 8
  %call = call noundef ptr @_ZN6icu_758TimeZone9getRegionERKNS_13UnicodeStringER10UErrorCode(ptr noundef nonnull align 8 dereferenceable(64) %0, ptr noundef nonnull align 4 dereferenceable(4) %status)
  ret ptr %call
}

; Function Attrs: mustprogress nounwind uwtable
define linkonce_odr void @_ZN6icu_7514ConstChar16PtrD2Ev(ptr noundef nonnull align 8 dereferenceable(8) %this) unnamed_addr #2 comdat align 2 {
entry:
  %this.addr = alloca ptr, align 8
  store ptr %this, ptr %this.addr, align 8
  %this1 = load ptr, ptr %this.addr, align 8
  %p_ = getelementptr inbounds %"class.icu_75::ConstChar16Ptr", ptr %this1, i32 0, i32 0
  %0 = load ptr, ptr %p_, align 8
  call void asm sideeffect "", "rm,~{memory},~{dirflag},~{fpsr},~{flags}"(ptr %0) #11, !srcloc !4
  ret void
}

; Function Attrs: mustprogress uwtable
define linkonce_odr noundef signext i8 @_ZNK6icu_7513UnicodeString7compareENS_14ConstChar16PtrEi(ptr noundef nonnull align 8 dereferenceable(64) %this, ptr noundef %srcChars, i32 noundef %srcLength) #0 comdat align 2 {
entry:
  %this.addr = alloca ptr, align 8
  %srcChars.indirect_addr = alloca ptr, align 8
  %srcLength.addr = alloca i32, align 4
  store ptr %this, ptr %this.addr, align 8
  store ptr %srcChars, ptr %srcChars.indirect_addr, align 8
  store i32 %srcLength, ptr %srcLength.addr, align 4
  %this1 = load ptr, ptr %this.addr, align 8
  %call = call noundef i32 @_ZNK6icu_7513UnicodeString6lengthEv(ptr noundef nonnull align 8 dereferenceable(64) %this1)
  %call2 = call noundef ptr @_ZNK6icu_7514ConstChar16PtrcvPKDsEv(ptr noundef nonnull align 8 dereferenceable(8) %srcChars)
  %0 = load i32, ptr %srcLength.addr, align 4
  %call3 = call noundef signext i8 @_ZNK6icu_7513UnicodeString9doCompareEiiPKDsii(ptr noundef nonnull align 8 dereferenceable(64) %this1, i32 noundef 0, i32 noundef %call, ptr noundef %call2, i32 noundef 0, i32 noundef %0)
  ret i8 %call3
}

; Function Attrs: mustprogress nounwind uwtable
define linkonce_odr void @_ZN6icu_7514ConstChar16PtrC2EPKDs(ptr noundef nonnull align 8 dereferenceable(8) %this, ptr noundef %p) unnamed_addr #2 comdat align 2 {
entry:
  %this.addr = alloca ptr, align 8
  %p.addr = alloca ptr, align 8
  store ptr %this, ptr %this.addr, align 8
  store ptr %p, ptr %p.addr, align 8
  %this1 = load ptr, ptr %this.addr, align 8
  %p_ = getelementptr inbounds %"class.icu_75::ConstChar16Ptr", ptr %this1, i32 0, i32 0
  %0 = load ptr, ptr %p.addr, align 8
  store ptr %0, ptr %p_, align 8
  ret void
}

; Function Attrs: mustprogress nounwind uwtable
define internal noundef signext i8 @_ZL9U_FAILURE10UErrorCode(i32 noundef %code) #2 {
entry:
  %code.addr = alloca i32, align 4
  store i32 %code, ptr %code.addr, align 4
  %0 = load i32, ptr %code.addr, align 4
  %cmp = icmp sgt i32 %0, 0
  %conv = zext i1 %cmp to i8
  ret i8 %conv
}

; Function Attrs: mustprogress uwtable
define noundef i32 @_ZN6icu_758TimeZone9getRegionERKNS_13UnicodeStringEPciR10UErrorCode(ptr noundef nonnull align 8 dereferenceable(64) %id, ptr noundef %region, i32 noundef %capacity, ptr noundef nonnull align 4 dereferenceable(4) %status) #0 align 2 personality ptr @__gxx_personality_v0 {
entry:
  %retval = alloca i32, align 4
  %id.addr = alloca ptr, align 8
  %region.addr = alloca ptr, align 8
  %capacity.addr = alloca i32, align 4
  %status.addr = alloca ptr, align 8
  %resultLen = alloca i32, align 4
  %uregion = alloca ptr, align 8
  %agg.tmp = alloca %"class.icu_75::ConstChar16Ptr", align 8
  %exn.slot = alloca ptr, align 8
  %ehselector.slot = alloca i32, align 4
  store ptr %id, ptr %id.addr, align 8
  store ptr %region, ptr %region.addr, align 8
  store i32 %capacity, ptr %capacity.addr, align 4
  store ptr %status, ptr %status.addr, align 8
  store i32 0, ptr %resultLen, align 4
  %0 = load ptr, ptr %region.addr, align 8
  store i8 0, ptr %0, align 1
  %1 = load ptr, ptr %status.addr, align 8
  %2 = load i32, ptr %1, align 4
  %call = call noundef signext i8 @_ZL9U_FAILURE10UErrorCode(i32 noundef %2)
  %tobool = icmp ne i8 %call, 0
  br i1 %tobool, label %if.then, label %if.end

if.then:                                          ; preds = %entry
  store i32 0, ptr %retval, align 4
  br label %return

if.end:                                           ; preds = %entry
  store ptr null, ptr %uregion, align 8
  %3 = load ptr, ptr %id.addr, align 8
  call void @_ZN6icu_7514ConstChar16PtrC2EPKDs(ptr noundef nonnull align 8 dereferenceable(8) %agg.tmp, ptr noundef @_ZL15UNKNOWN_ZONE_ID)
  %call1 = invoke noundef signext i8 @_ZNK6icu_7513UnicodeString7compareENS_14ConstChar16PtrEi(ptr noundef nonnull align 8 dereferenceable(64) %3, ptr noundef %agg.tmp, i32 noundef 11)
          to label %invoke.cont unwind label %lpad

invoke.cont:                                      ; preds = %if.end
  %conv = sext i8 %call1 to i32
  %cmp = icmp ne i32 %conv, 0
  call void @_ZN6icu_7514ConstChar16PtrD2Ev(ptr noundef nonnull align 8 dereferenceable(8) %agg.tmp) #11
  br i1 %cmp, label %if.then2, label %if.end4

if.then2:                                         ; preds = %invoke.cont
  %4 = load ptr, ptr %id.addr, align 8
  %call3 = call noundef ptr @_ZN6icu_758TimeZone9getRegionERKNS_13UnicodeStringE(ptr noundef nonnull align 8 dereferenceable(64) %4)
  store ptr %call3, ptr %uregion, align 8
  br label %if.end4

lpad:                                             ; preds = %if.end
  %5 = landingpad { ptr, i32 }
          cleanup
  %6 = extractvalue { ptr, i32 } %5, 0
  store ptr %6, ptr %exn.slot, align 8
  %7 = extractvalue { ptr, i32 } %5, 1
  store i32 %7, ptr %ehselector.slot, align 4
  call void @_ZN6icu_7514ConstChar16PtrD2Ev(ptr noundef nonnull align 8 dereferenceable(8) %agg.tmp) #11
  br label %eh.resume

if.end4:                                          ; preds = %if.then2, %invoke.cont
  %8 = load ptr, ptr %uregion, align 8
  %cmp5 = icmp eq ptr %8, null
  br i1 %cmp5, label %if.then6, label %if.end7

if.then6:                                         ; preds = %if.end4
  %9 = load ptr, ptr %status.addr, align 8
  store i32 1, ptr %9, align 4
  store i32 0, ptr %retval, align 4
  br label %return

if.end7:                                          ; preds = %if.end4
  %10 = load ptr, ptr %uregion, align 8
  %call8 = call i32 @u_strlen_75(ptr noundef %10)
  store i32 %call8, ptr %resultLen, align 4
  %11 = load ptr, ptr %uregion, align 8
  %12 = load ptr, ptr %region.addr, align 8
  %13 = load i32, ptr %resultLen, align 4
  %14 = load i32, ptr %capacity.addr, align 4
  %call9 = call i32 @uprv_min_75(i32 noundef %13, i32 noundef %14)
  call void @u_UCharsToChars_75(ptr noundef %11, ptr noundef %12, i32 noundef %call9)
  %15 = load i32, ptr %capacity.addr, align 4
  %16 = load i32, ptr %resultLen, align 4
  %cmp10 = icmp slt i32 %15, %16
  br i1 %cmp10, label %if.then11, label %if.end12

if.then11:                                        ; preds = %if.end7
  %17 = load ptr, ptr %status.addr, align 8
  store i32 15, ptr %17, align 4
  %18 = load i32, ptr %resultLen, align 4
  store i32 %18, ptr %retval, align 4
  br label %return

if.end12:                                         ; preds = %if.end7
  %19 = load ptr, ptr %region.addr, align 8
  %20 = load i32, ptr %capacity.addr, align 4
  %21 = load i32, ptr %resultLen, align 4
  %22 = load ptr, ptr %status.addr, align 8
  %call13 = call i32 @u_terminateChars_75(ptr noundef %19, i32 noundef %20, i32 noundef %21, ptr noundef %22)
  store i32 %call13, ptr %retval, align 4
  br label %return

return:                                           ; preds = %if.end12, %if.then11, %if.then6, %if.then
  %23 = load i32, ptr %retval, align 4
  ret i32 %23

eh.resume:                                        ; preds = %lpad
  %exn = load ptr, ptr %exn.slot, align 8
  %sel = load i32, ptr %ehselector.slot, align 4
  %lpad.val = insertvalue { ptr, i32 } poison, ptr %exn, 0
  %lpad.val14 = insertvalue { ptr, i32 } %lpad.val, i32 %sel, 1
  resume { ptr, i32 } %lpad.val14
}