; Function Attrs: mustprogress uwtable
define noundef i32 @_ZN6icu_758TimeZone9getRegionERKNS_13UnicodeStringEPciR10UErrorCode(ptr noundef nonnull align 8 dereferenceable(64) %id, ptr noundef %region, i32 noundef %capacity, ptr noundef nonnull align 4 dereferenceable(4) %status) local_unnamed_addr #0 align 2 personality ptr @__gxx_personality_v0 {
entry:
  %status.i = alloca i32, align 4
  store i8 0, ptr %region, align 1
  %0 = load i32, ptr %status, align 4
  %cmp.i = icmp slt i32 %0, 1
  br i1 %cmp.i, label %if.end, label %return

if.end:                                           ; preds = %entry
  %fUnion.i.i.i = getelementptr inbounds i8, ptr %id, i64 8
  %1 = load i16, ptr %fUnion.i.i.i, align 8
  %cmp.i.i.i = icmp slt i16 %1, 0
  %2 = ashr i16 %1, 5
  %shr.i.i.i = sext i16 %2 to i32
  %fLength.i.i = getelementptr inbounds i8, ptr %id, i64 12
  %3 = load i32, ptr %fLength.i.i, align 4
  %cond.i.i = select i1 %cmp.i.i.i, i32 %3, i32 %shr.i.i.i
  %call3.i14 = invoke noundef signext i8 @_ZNK6icu_7513UnicodeString9doCompareEiiPKDsii(ptr noundef nonnull align 8 dereferenceable(64) %id, i32 noundef 0, i32 noundef %cond.i.i, ptr noundef nonnull @_ZL15UNKNOWN_ZONE_ID, i32 noundef 0, i32 noundef 11)
          to label %invoke.cont unwind label %lpad

invoke.cont:                                      ; preds = %if.end
  %cmp.not = icmp eq i8 %call3.i14, 0
  tail call void asm sideeffect "", "rm,~{memory},~{dirflag},~{fpsr},~{flags}"(ptr nonnull @_ZL15UNKNOWN_ZONE_ID) #18, !srcloc !4
  br i1 %cmp.not, label %if.then6, label %if.end4

lpad:                                             ; preds = %if.end
  %4 = landingpad { ptr, i32 }
          cleanup
  tail call void asm sideeffect "", "rm,~{memory},~{dirflag},~{fpsr},~{flags}"(ptr nonnull @_ZL15UNKNOWN_ZONE_ID) #18, !srcloc !4
  resume { ptr, i32 } %4

if.end4:                                          ; preds = %invoke.cont
  call void @llvm.lifetime.start.p0(i64 4, ptr nonnull %status.i)
  store i32 0, ptr %status.i, align 4
  %call.i = call noundef ptr @_ZN6icu_758TimeZone9getRegionERKNS_13UnicodeStringER10UErrorCode(ptr noundef nonnull align 8 dereferenceable(64) %id, ptr noundef nonnull align 4 dereferenceable(4) %status.i)
  call void @llvm.lifetime.end.p0(i64 4, ptr nonnull %status.i)
  %cmp5 = icmp eq ptr %call.i, null
  br i1 %cmp5, label %if.then6, label %if.end7

if.then6:                                         ; preds = %invoke.cont, %if.end4
  store i32 1, ptr %status, align 4
  br label %return

if.end7:                                          ; preds = %if.end4
  %call8 = call i32 @u_strlen_75(ptr noundef nonnull %call.i)
  %call9 = call i32 @uprv_min_75(i32 noundef %call8, i32 noundef %capacity)
  call void @u_UCharsToChars_75(ptr noundef nonnull %call.i, ptr noundef nonnull %region, i32 noundef %call9)
  %cmp10 = icmp sgt i32 %call8, %capacity
  br i1 %cmp10, label %if.then11, label %if.end12

if.then11:                                        ; preds = %if.end7
  store i32 15, ptr %status, align 4
  br label %return

if.end12:                                         ; preds = %if.end7
  %call13 = call i32 @u_terminateChars_75(ptr noundef nonnull %region, i32 noundef %capacity, i32 noundef %call8, ptr noundef nonnull %status)
  br label %return

return:                                           ; preds = %entry, %if.end12, %if.then11, %if.then6
  %retval.0 = phi i32 [ 0, %if.then6 ], [ %call8, %if.then11 ], [ %call13, %if.end12 ], [ 0, %entry ]
  ret i32 %retval.0
}